; Function Attrs: mustprogress nofree norecurse nosync nounwind willreturn memory(read, argmem: readwrite, inaccessiblemem: none) uwtable
define i32 @php_pcre2_substring_length_bynumber(ptr nocapture noundef readonly %0, i32 noundef %1, ptr noundef writeonly %2) local_unnamed_addr #2 {
  %4 = getelementptr inbounds i8, ptr %0, i64 100
  %5 = load i32, ptr %4, align 4
  %6 = icmp eq i32 %5, -2
  br i1 %6, label %7, label %8

7:                                                ; preds = %3
  %.not = icmp eq i32 %1, 0
  br i1 %.not, label %10, label %52

8:                                                ; preds = %3
  %9 = icmp slt i32 %5, 0
  br i1 %9, label %52, label %10

10:                                               ; preds = %7, %8
  %.0 = phi i32 [ %5, %8 ], [ 0, %7 ]
  %11 = getelementptr inbounds i8, ptr %0, i64 96
  %12 = load i8, ptr %11, align 8
  %.not38 = icmp eq i8 %12, 1
  br i1 %.not38, label %31, label %13

13:                                               ; preds = %10
  %14 = getelementptr inbounds i8, ptr %0, i64 24
  %15 = load ptr, ptr %14, align 8
  %16 = getelementptr inbounds i8, ptr %15, i64 128
  %17 = load i16, ptr %16, align 8
  %18 = zext i16 %17 to i32
  %19 = icmp ult i32 %18, %1
  br i1 %19, label %52, label %20

20:                                               ; preds = %13
  %21 = getelementptr inbounds i8, ptr %0, i64 98
  %22 = load i16, ptr %21, align 2
  %23 = zext i16 %22 to i32
  %.not42 = icmp ugt i32 %23, %1
  br i1 %.not42, label %24, label %52

24:                                               ; preds = %20
  %25 = getelementptr inbounds i8, ptr %0, i64 104
  %26 = shl nuw nsw i32 %1, 1
  %27 = zext nneg i32 %26 to i64
  %28 = getelementptr inbounds [131072 x i64], ptr %25, i64 0, i64 %27
  %29 = load i64, ptr %28, align 8
  %30 = icmp eq i64 %29, -1
  br i1 %30, label %52, label %37

31:                                               ; preds = %10
  %32 = getelementptr inbounds i8, ptr %0, i64 98
  %33 = load i16, ptr %32, align 2
  %34 = zext i16 %33 to i32
  %.not39 = icmp ugt i32 %34, %1
  br i1 %.not39, label %35, label %52

35:                                               ; preds = %31
  %36 = add nsw i32 %.0, -1
  %or.cond.not = icmp ult i32 %36, %1
  br i1 %or.cond.not, label %52, label %._crit_edge

._crit_edge:                                      ; preds = %35
  %.pre = shl nuw nsw i32 %1, 1
  %.pre45 = zext nneg i32 %.pre to i64
  br label %37

37:                                               ; preds = %._crit_edge, %24
  %.pre-phi46 = phi i64 [ %.pre45, %._crit_edge ], [ %27, %24 ]
  %.pre-phi = phi i32 [ %.pre, %._crit_edge ], [ %26, %24 ]
  %38 = getelementptr inbounds i8, ptr %0, i64 104
  %39 = getelementptr inbounds [131072 x i64], ptr %38, i64 0, i64 %.pre-phi46
  %40 = load i64, ptr %39, align 8
  %41 = or disjoint i32 %.pre-phi, 1
  %42 = zext nneg i32 %41 to i64
  %43 = getelementptr inbounds [131072 x i64], ptr %38, i64 0, i64 %42
  %44 = load i64, ptr %43, align 8
  %45 = getelementptr inbounds i8, ptr %0, i64 64
  %46 = load i64, ptr %45, align 8
  %47 = icmp ugt i64 %40, %46
  %48 = icmp ugt i64 %44, %46
  %or.cond44 = select i1 %47, i1 true, i1 %48
  br i1 %or.cond44, label %52, label %49

49:                                               ; preds = %37
  %.not43 = icmp eq ptr %2, null
  br i1 %.not43, label %52, label %50

50:                                               ; preds = %49
  %51 = tail call i64 @llvm.usub.sat.i64(i64 %44, i64 %40)
  store i64 %51, ptr %2, align 8
  br label %52

52:                                               ; preds = %49, %50, %37, %35, %31, %24, %20, %13, %8, %7
  %.031 = phi i32 [ -2, %7 ], [ %5, %8 ], [ -49, %13 ], [ -54, %20 ], [ -55, %24 ], [ -54, %31 ], [ -55, %35 ], [ -67, %37 ], [ 0, %50 ], [ 0, %49 ]
  ret i32 %.031
}